
w1.elf:     file format elf32-avr

Sections:
Idx Name          Size      VMA       LMA       File off  Algn
  0 .text         000003b4  00000000  00000000  00000094  2**1
                  CONTENTS, ALLOC, LOAD, READONLY, CODE
  1 .data         00000012  00800060  000003b4  00000448  2**0
                  CONTENTS, ALLOC, LOAD, DATA
  2 .bss          00000009  00800072  00800072  0000045a  2**0
                  ALLOC
  3 .comment      00000030  00000000  00000000  0000045a  2**0
                  CONTENTS, READONLY
  4 .note.gnu.avr.deviceinfo 0000003c  00000000  00000000  0000048c  2**2
                  CONTENTS, READONLY
  5 .debug_info   000004e6  00000000  00000000  000004c8  2**0
                  CONTENTS, READONLY, DEBUGGING
  6 .debug_abbrev 000004a3  00000000  00000000  000009ae  2**0
                  CONTENTS, READONLY, DEBUGGING
  7 .debug_line   0000001a  00000000  00000000  00000e51  2**0
                  CONTENTS, READONLY, DEBUGGING
  8 .debug_str    00000196  00000000  00000000  00000e6b  2**0
                  CONTENTS, READONLY, DEBUGGING

Disassembly of section .text:

00000000 <__vectors>:
   0:	0c 94 2a 00 	jmp	0x54	; 0x54 <__ctors_end>
   4:	0c 94 a1 00 	jmp	0x142	; 0x142 <__vector_1>
   8:	0c 94 b9 00 	jmp	0x172	; 0x172 <__vector_2>
   c:	0c 94 c7 00 	jmp	0x18e	; 0x18e <__vector_3>
  10:	0c 94 47 00 	jmp	0x8e	; 0x8e <__bad_interrupt>
  14:	0c 94 df 00 	jmp	0x1be	; 0x1be <__vector_5>
  18:	0c 94 47 00 	jmp	0x8e	; 0x8e <__bad_interrupt>
  1c:	0c 94 47 00 	jmp	0x8e	; 0x8e <__bad_interrupt>
  20:	0c 94 47 00 	jmp	0x8e	; 0x8e <__bad_interrupt>
  24:	0c 94 47 00 	jmp	0x8e	; 0x8e <__bad_interrupt>
  28:	0c 94 70 00 	jmp	0xe0	; 0xe0 <__vector_10>
  2c:	0c 94 47 00 	jmp	0x8e	; 0x8e <__bad_interrupt>
  30:	0c 94 47 00 	jmp	0x8e	; 0x8e <__bad_interrupt>
  34:	0c 94 47 00 	jmp	0x8e	; 0x8e <__bad_interrupt>
  38:	0c 94 47 00 	jmp	0x8e	; 0x8e <__bad_interrupt>
  3c:	0c 94 47 00 	jmp	0x8e	; 0x8e <__bad_interrupt>
  40:	0c 94 47 00 	jmp	0x8e	; 0x8e <__bad_interrupt>
  44:	0c 94 47 00 	jmp	0x8e	; 0x8e <__bad_interrupt>
  48:	0c 94 47 00 	jmp	0x8e	; 0x8e <__bad_interrupt>
  4c:	0c 94 47 00 	jmp	0x8e	; 0x8e <__bad_interrupt>
  50:	0c 94 47 00 	jmp	0x8e	; 0x8e <__bad_interrupt>

00000054 <__ctors_end>:
  54:	11 24       	eor	r1, r1
  56:	1f be       	out	0x3f, r1	; 63
  58:	cf e5       	ldi	r28, 0x5F	; 95
  5a:	d8 e0       	ldi	r29, 0x08	; 8
  5c:	de bf       	out	0x3e, r29	; 62
  5e:	cd bf       	out	0x3d, r28	; 61

00000060 <__do_copy_data>:
  60:	10 e0       	ldi	r17, 0x00	; 0
  62:	a0 e6       	ldi	r26, 0x60	; 96
  64:	b0 e0       	ldi	r27, 0x00	; 0
  66:	e4 eb       	ldi	r30, 0xB4	; 180
  68:	f3 e0       	ldi	r31, 0x03	; 3
  6a:	02 c0       	rjmp	.+4      	; 0x70 <__do_copy_data+0x10>
  6c:	05 90       	lpm	r0, Z+
  6e:	0d 92       	st	X+, r0
  70:	a2 37       	cpi	r26, 0x72	; 114
  72:	b1 07       	cpc	r27, r17
  74:	d9 f7       	brne	.-10     	; 0x6c <__do_copy_data+0xc>

00000076 <__do_clear_bss>:
  76:	20 e0       	ldi	r18, 0x00	; 0
  78:	a2 e7       	ldi	r26, 0x72	; 114
  7a:	b0 e0       	ldi	r27, 0x00	; 0
  7c:	01 c0       	rjmp	.+2      	; 0x80 <.do_clear_bss_start>

0000007e <.do_clear_bss_loop>:
  7e:	1d 92       	st	X+, r1

00000080 <.do_clear_bss_start>:
  80:	ab 37       	cpi	r26, 0x7B	; 123
  82:	b2 07       	cpc	r27, r18
  84:	e1 f7       	brne	.-8      	; 0x7e <.do_clear_bss_loop>
  86:	0e 94 0d 01 	call	0x21a	; 0x21a <main>
  8a:	0c 94 d8 01 	jmp	0x3b0	; 0x3b0 <_exit>

0000008e <__bad_interrupt>:
  8e:	0c 94 00 00 	jmp	0	; 0x0 <__vectors>

00000092 <init>:
  92:	8a b3       	in	r24, 0x1a	; 26
  94:	8f 67       	ori	r24, 0x7F	; 127
  96:	8a bb       	out	0x1a, r24	; 26
  98:	8b b3       	in	r24, 0x1b	; 27
  9a:	8f 67       	ori	r24, 0x7F	; 127
  9c:	8b bb       	out	0x1b, r24	; 27
  9e:	84 b3       	in	r24, 0x14	; 20
  a0:	87 60       	ori	r24, 0x07	; 7
  a2:	84 bb       	out	0x14, r24	; 20
  a4:	85 b3       	in	r24, 0x15	; 21
  a6:	87 60       	ori	r24, 0x07	; 7
  a8:	85 bb       	out	0x15, r24	; 21
  aa:	8a 98       	cbi	0x11, 2	; 17
  ac:	8b 98       	cbi	0x11, 3	; 17
  ae:	ba 98       	cbi	0x17, 2	; 23
  b0:	bf 9a       	sbi	0x17, 7	; 23
  b2:	92 9a       	sbi	0x12, 2	; 18
  b4:	93 9a       	sbi	0x12, 3	; 18
  b6:	c2 9a       	sbi	0x18, 2	; 24
  b8:	83 b7       	in	r24, 0x33	; 51
  ba:	88 60       	ori	r24, 0x08	; 8
  bc:	83 bf       	out	0x33, r24	; 51
  be:	83 b7       	in	r24, 0x33	; 51
  c0:	85 60       	ori	r24, 0x05	; 5
  c2:	83 bf       	out	0x33, r24	; 51
  c4:	85 e3       	ldi	r24, 0x35	; 53
  c6:	8c bf       	out	0x3c, r24	; 60
  c8:	89 b7       	in	r24, 0x39	; 57
  ca:	82 60       	ori	r24, 0x02	; 2
  cc:	89 bf       	out	0x39, r24	; 57
  ce:	85 b5       	in	r24, 0x25	; 37
  d0:	86 60       	ori	r24, 0x06	; 6
  d2:	85 bd       	out	0x25, r24	; 37
  d4:	89 b7       	in	r24, 0x39	; 57
  d6:	80 64       	ori	r24, 0x40	; 64
  d8:	89 bf       	out	0x39, r24	; 57
  da:	85 e0       	ldi	r24, 0x05	; 5
  dc:	84 bd       	out	0x24, r24	; 36
  de:	08 95       	ret

000000e0 <__vector_10>:
  e0:	1f 92       	push	r1
  e2:	0f 92       	push	r0
  e4:	0f b6       	in	r0, 0x3f	; 63
  e6:	0f 92       	push	r0
  e8:	11 24       	eor	r1, r1
  ea:	8f 93       	push	r24
  ec:	ef 93       	push	r30
  ee:	ff 93       	push	r31
  f0:	80 91 60 00 	lds	r24, 0x0060
  f4:	80 95       	com	r24
  f6:	85 bb       	out	0x15, r24	; 21
  f8:	80 91 60 00 	lds	r24, 0x0060
  fc:	81 30       	cpi	r24, 0x01	; 1
  fe:	19 f4       	brne	.+6      	; 0x106 <__vector_10+0x26>
 100:	e0 91 77 00 	lds	r30, 0x0077
 104:	09 c0       	rjmp	.+18     	; 0x118 <__vector_10+0x38>
 106:	82 30       	cpi	r24, 0x02	; 2
 108:	19 f4       	brne	.+6      	; 0x110 <__vector_10+0x30>
 10a:	e0 91 78 00 	lds	r30, 0x0078
 10e:	04 c0       	rjmp	.+8      	; 0x118 <__vector_10+0x38>
 110:	84 30       	cpi	r24, 0x04	; 4
 112:	39 f4       	brne	.+14     	; 0x122 <__vector_10+0x42>
 114:	e0 91 79 00 	lds	r30, 0x0079
 118:	f0 e0       	ldi	r31, 0x00	; 0
 11a:	ed 59       	subi	r30, 0x9D	; 157
 11c:	ff 4f       	sbci	r31, 0xFF	; 255
 11e:	80 81       	ld	r24, Z
 120:	8b bb       	out	0x1b, r24	; 27
 122:	80 91 60 00 	lds	r24, 0x0060
 126:	88 0f       	add	r24, r24
 128:	85 30       	cpi	r24, 0x05	; 5
 12a:	08 f0       	brcs	.+2      	; 0x12e <__vector_10+0x4e>
 12c:	81 e0       	ldi	r24, 0x01	; 1
 12e:	80 93 60 00 	sts	0x0060, r24
 132:	ff 91       	pop	r31
 134:	ef 91       	pop	r30
 136:	8f 91       	pop	r24
 138:	0f 90       	pop	r0
 13a:	0f be       	out	0x3f, r0	; 63
 13c:	0f 90       	pop	r0
 13e:	1f 90       	pop	r1
 140:	18 95       	reti

00000142 <__vector_1>:
 142:	1f 92       	push	r1
 144:	0f 92       	push	r0
 146:	0f b6       	in	r0, 0x3f	; 63
 148:	0f 92       	push	r0
 14a:	11 24       	eor	r1, r1
 14c:	8f 93       	push	r24
 14e:	9f 93       	push	r25
 150:	81 e0       	ldi	r24, 0x01	; 1
 152:	90 e0       	ldi	r25, 0x00	; 0
 154:	90 93 76 00 	sts	0x0076, r25
 158:	80 93 75 00 	sts	0x0075, r24
 15c:	10 92 62 00 	sts	0x0062, r1
 160:	10 92 61 00 	sts	0x0061, r1
 164:	9f 91       	pop	r25
 166:	8f 91       	pop	r24
 168:	0f 90       	pop	r0
 16a:	0f be       	out	0x3f, r0	; 63
 16c:	0f 90       	pop	r0
 16e:	1f 90       	pop	r1
 170:	18 95       	reti

00000172 <__vector_2>:
 172:	1f 92       	push	r1
 174:	0f 92       	push	r0
 176:	0f b6       	in	r0, 0x3f	; 63
 178:	0f 92       	push	r0
 17a:	11 24       	eor	r1, r1
 17c:	10 92 76 00 	sts	0x0076, r1
 180:	10 92 75 00 	sts	0x0075, r1
 184:	0f 90       	pop	r0
 186:	0f be       	out	0x3f, r0	; 63
 188:	0f 90       	pop	r0
 18a:	1f 90       	pop	r1
 18c:	18 95       	reti

0000018e <__vector_3>:
 18e:	1f 92       	push	r1
 190:	0f 92       	push	r0
 192:	0f b6       	in	r0, 0x3f	; 63
 194:	0f 92       	push	r0
 196:	11 24       	eor	r1, r1
 198:	8f 93       	push	r24
 19a:	9f 93       	push	r25
 19c:	81 e0       	ldi	r24, 0x01	; 1
 19e:	90 e0       	ldi	r25, 0x00	; 0
 1a0:	90 93 62 00 	sts	0x0062, r25
 1a4:	80 93 61 00 	sts	0x0061, r24
 1a8:	10 92 76 00 	sts	0x0076, r1
 1ac:	10 92 75 00 	sts	0x0075, r1
 1b0:	9f 91       	pop	r25
 1b2:	8f 91       	pop	r24
 1b4:	0f 90       	pop	r0
 1b6:	0f be       	out	0x3f, r0	; 63
 1b8:	0f 90       	pop	r0
 1ba:	1f 90       	pop	r1
 1bc:	18 95       	reti

000001be <__vector_5>:
 1be:	1f 92       	push	r1
 1c0:	0f 92       	push	r0
 1c2:	0f b6       	in	r0, 0x3f	; 63
 1c4:	0f 92       	push	r0
 1c6:	11 24       	eor	r1, r1
 1c8:	8f 93       	push	r24
 1ca:	9f 93       	push	r25
 1cc:	80 91 72 00 	lds	r24, 0x0072
 1d0:	8f 5f       	subi	r24, 0xFF	; 255
 1d2:	80 93 72 00 	sts	0x0072, r24
 1d6:	80 91 72 00 	lds	r24, 0x0072
 1da:	8d 37       	cpi	r24, 0x7D	; 125
 1dc:	b9 f4       	brne	.+46     	; 0x20c <__vector_5+0x4e>
 1de:	80 91 75 00 	lds	r24, 0x0075
 1e2:	90 91 76 00 	lds	r25, 0x0076
 1e6:	01 97       	sbiw	r24, 0x01	; 1
 1e8:	79 f4       	brne	.+30     	; 0x208 <__vector_5+0x4a>
 1ea:	80 91 73 00 	lds	r24, 0x0073
 1ee:	90 91 74 00 	lds	r25, 0x0074
 1f2:	89 2b       	or	r24, r25
 1f4:	49 f0       	breq	.+18     	; 0x208 <__vector_5+0x4a>
 1f6:	80 91 73 00 	lds	r24, 0x0073
 1fa:	90 91 74 00 	lds	r25, 0x0074
 1fe:	01 97       	sbiw	r24, 0x01	; 1
 200:	90 93 74 00 	sts	0x0074, r25
 204:	80 93 73 00 	sts	0x0073, r24
 208:	10 92 72 00 	sts	0x0072, r1
 20c:	9f 91       	pop	r25
 20e:	8f 91       	pop	r24
 210:	0f 90       	pop	r0
 212:	0f be       	out	0x3f, r0	; 63
 214:	0f 90       	pop	r0
 216:	1f 90       	pop	r1
 218:	18 95       	reti

0000021a <main>:
 21a:	0e 94 49 00 	call	0x92	; 0x92 <init>
 21e:	87 b1       	in	r24, 0x07	; 7
 220:	87 64       	ori	r24, 0x47	; 71
 222:	87 b9       	out	0x07, r24	; 7
 224:	86 b1       	in	r24, 0x06	; 6
 226:	87 68       	ori	r24, 0x87	; 135
 228:	86 b9       	out	0x06, r24	; 6
 22a:	78 94       	sei
 22c:	85 b7       	in	r24, 0x35	; 53
 22e:	82 60       	ori	r24, 0x02	; 2
 230:	85 bf       	out	0x35, r24	; 53
 232:	85 b7       	in	r24, 0x35	; 53
 234:	88 60       	ori	r24, 0x08	; 8
 236:	85 bf       	out	0x35, r24	; 53
 238:	8b b7       	in	r24, 0x3b	; 59
 23a:	80 64       	ori	r24, 0x40	; 64
 23c:	8b bf       	out	0x3b, r24	; 59
 23e:	8b b7       	in	r24, 0x3b	; 59
 240:	80 68       	ori	r24, 0x80	; 128
 242:	8b bf       	out	0x3b, r24	; 59
 244:	8b b7       	in	r24, 0x3b	; 59
 246:	80 62       	ori	r24, 0x20	; 32
 248:	8b bf       	out	0x3b, r24	; 59
 24a:	10 92 77 00 	sts	0x0077, r1
 24e:	88 e0       	ldi	r24, 0x08	; 8
 250:	80 93 78 00 	sts	0x0078, r24
 254:	80 93 79 00 	sts	0x0079, r24
 258:	2f ef       	ldi	r18, 0xFF	; 255
 25a:	5f e5       	ldi	r21, 0x5F	; 95
 25c:	84 e5       	ldi	r24, 0x54	; 84
 25e:	21 50       	subi	r18, 0x01	; 1
 260:	50 40       	sbci	r21, 0x00	; 0
 262:	80 40       	sbci	r24, 0x00	; 0
 264:	e1 f7       	brne	.-8      	; 0x25e <main+0x44>
 266:	00 c0       	rjmp	.+0      	; 0x268 <main+0x4e>
 268:	00 00       	nop
 26a:	83 e0       	ldi	r24, 0x03	; 3
 26c:	80 93 77 00 	sts	0x0077, r24
 270:	85 e0       	ldi	r24, 0x05	; 5
 272:	80 93 78 00 	sts	0x0078, r24
 276:	89 e0       	ldi	r24, 0x09	; 9
 278:	80 93 79 00 	sts	0x0079, r24
 27c:	9f ef       	ldi	r25, 0xFF	; 255
 27e:	2f e5       	ldi	r18, 0x5F	; 95
 280:	54 e5       	ldi	r21, 0x54	; 84
 282:	91 50       	subi	r25, 0x01	; 1
 284:	20 40       	sbci	r18, 0x00	; 0
 286:	50 40       	sbci	r21, 0x00	; 0
 288:	e1 f7       	brne	.-8      	; 0x282 <main+0x68>
 28a:	00 c0       	rjmp	.+0      	; 0x28c <main+0x72>
 28c:	00 00       	nop
 28e:	c7 98       	cbi	0x18, 7	; 24
 290:	8f ef       	ldi	r24, 0xFF	; 255
 292:	9f e7       	ldi	r25, 0x7F	; 127
 294:	23 e4       	ldi	r18, 0x43	; 67
 296:	81 50       	subi	r24, 0x01	; 1
 298:	90 40       	sbci	r25, 0x00	; 0
 29a:	20 40       	sbci	r18, 0x00	; 0
 29c:	e1 f7       	brne	.-8      	; 0x296 <main+0x7c>
 29e:	00 c0       	rjmp	.+0      	; 0x2a0 <main+0x86>
 2a0:	00 00       	nop
 2a2:	c7 9a       	sbi	0x18, 7	; 24
 2a4:	2a e0       	ldi	r18, 0x0A	; 10
 2a6:	30 e0       	ldi	r19, 0x00	; 0
 2a8:	e4 e6       	ldi	r30, 0x64	; 100
 2aa:	f0 e0       	ldi	r31, 0x00	; 0
 2ac:	c1 e0       	ldi	r28, 0x01	; 1
 2ae:	4c e9       	ldi	r20, 0x9C	; 156
 2b0:	36 9a       	sbi	0x06, 6	; 6
 2b2:	80 91 61 00 	lds	r24, 0x0061
 2b6:	90 91 62 00 	lds	r25, 0x0062
 2ba:	01 97       	sbiw	r24, 0x01	; 1
 2bc:	99 f4       	brne	.+38     	; 0x2e4 <main+0xca>
 2be:	36 99       	sbic	0x06, 6	; 6
 2c0:	fe cf       	rjmp	.-4      	; 0x2be <main+0xa4>
 2c2:	84 b1       	in	r24, 0x04	; 4
 2c4:	95 b1       	in	r25, 0x05	; 5
 2c6:	90 93 74 00 	sts	0x0074, r25
 2ca:	80 93 73 00 	sts	0x0073, r24
 2ce:	80 91 73 00 	lds	r24, 0x0073
 2d2:	90 91 74 00 	lds	r25, 0x0074
 2d6:	b9 01       	movw	r22, r18
 2d8:	0e 94 b0 01 	call	0x360	; 0x360 <__divmodhi4>
 2dc:	70 93 74 00 	sts	0x0074, r23
 2e0:	60 93 73 00 	sts	0x0073, r22
 2e4:	80 91 73 00 	lds	r24, 0x0073
 2e8:	90 91 74 00 	lds	r25, 0x0074
 2ec:	89 2b       	or	r24, r25
 2ee:	41 f4       	brne	.+16     	; 0x300 <main+0xe6>
 2f0:	80 91 61 00 	lds	r24, 0x0061
 2f4:	90 91 62 00 	lds	r25, 0x0062
 2f8:	89 2b       	or	r24, r25
 2fa:	11 f4       	brne	.+4      	; 0x300 <main+0xe6>
 2fc:	c7 98       	cbi	0x18, 7	; 24
 2fe:	01 c0       	rjmp	.+2      	; 0x302 <main+0xe8>
 300:	c7 9a       	sbi	0x18, 7	; 24
 302:	80 91 73 00 	lds	r24, 0x0073
 306:	90 91 74 00 	lds	r25, 0x0074
 30a:	bf 01       	movw	r22, r30
 30c:	0e 94 b0 01 	call	0x360	; 0x360 <__divmodhi4>
 310:	61 11       	cpse	r22, r1
 312:	03 c0       	rjmp	.+6      	; 0x31a <main+0x100>
 314:	10 92 77 00 	sts	0x0077, r1
 318:	02 c0       	rjmp	.+4      	; 0x31e <main+0x104>
 31a:	c0 93 77 00 	sts	0x0077, r28
 31e:	80 91 73 00 	lds	r24, 0x0073
 322:	90 91 74 00 	lds	r25, 0x0074
 326:	46 03       	mulsu	r20, r22
 328:	b0 01       	movw	r22, r0
 32a:	11 24       	eor	r1, r1
 32c:	86 0f       	add	r24, r22
 32e:	97 1f       	adc	r25, r23
 330:	b9 01       	movw	r22, r18
 332:	0e 94 b0 01 	call	0x360	; 0x360 <__divmodhi4>
 336:	60 93 78 00 	sts	0x0078, r22
 33a:	80 91 73 00 	lds	r24, 0x0073
 33e:	90 91 74 00 	lds	r25, 0x0074
 342:	b9 01       	movw	r22, r18
 344:	0e 94 b0 01 	call	0x360	; 0x360 <__divmodhi4>
 348:	80 93 79 00 	sts	0x0079, r24
 34c:	5f ef       	ldi	r21, 0xFF	; 255
 34e:	8f ea       	ldi	r24, 0xAF	; 175
 350:	91 e0       	ldi	r25, 0x01	; 1
 352:	51 50       	subi	r21, 0x01	; 1
 354:	80 40       	sbci	r24, 0x00	; 0
 356:	90 40       	sbci	r25, 0x00	; 0
 358:	e1 f7       	brne	.-8      	; 0x352 <main+0x138>
 35a:	00 c0       	rjmp	.+0      	; 0x35c <main+0x142>
 35c:	00 00       	nop
 35e:	a8 cf       	rjmp	.-176    	; 0x2b0 <main+0x96>

00000360 <__divmodhi4>:
 360:	97 fb       	bst	r25, 7
 362:	07 2e       	mov	r0, r23
 364:	16 f4       	brtc	.+4      	; 0x36a <__divmodhi4+0xa>
 366:	00 94       	com	r0
 368:	07 d0       	rcall	.+14     	; 0x378 <__divmodhi4_neg1>
 36a:	77 fd       	sbrc	r23, 7
 36c:	09 d0       	rcall	.+18     	; 0x380 <__divmodhi4_neg2>
 36e:	0e 94 c4 01 	call	0x388	; 0x388 <__udivmodhi4>
 372:	07 fc       	sbrc	r0, 7
 374:	05 d0       	rcall	.+10     	; 0x380 <__divmodhi4_neg2>
 376:	3e f4       	brtc	.+14     	; 0x386 <__divmodhi4_exit>

00000378 <__divmodhi4_neg1>:
 378:	90 95       	com	r25
 37a:	81 95       	neg	r24
 37c:	9f 4f       	sbci	r25, 0xFF	; 255
 37e:	08 95       	ret

00000380 <__divmodhi4_neg2>:
 380:	70 95       	com	r23
 382:	61 95       	neg	r22
 384:	7f 4f       	sbci	r23, 0xFF	; 255

00000386 <__divmodhi4_exit>:
 386:	08 95       	ret

00000388 <__udivmodhi4>:
 388:	aa 1b       	sub	r26, r26
 38a:	bb 1b       	sub	r27, r27
 38c:	51 e1       	ldi	r21, 0x11	; 17
 38e:	07 c0       	rjmp	.+14     	; 0x39e <__udivmodhi4_ep>

00000390 <__udivmodhi4_loop>:
 390:	aa 1f       	adc	r26, r26
 392:	bb 1f       	adc	r27, r27
 394:	a6 17       	cp	r26, r22
 396:	b7 07       	cpc	r27, r23
 398:	10 f0       	brcs	.+4      	; 0x39e <__udivmodhi4_ep>
 39a:	a6 1b       	sub	r26, r22
 39c:	b7 0b       	sbc	r27, r23

0000039e <__udivmodhi4_ep>:
 39e:	88 1f       	adc	r24, r24
 3a0:	99 1f       	adc	r25, r25
 3a2:	5a 95       	dec	r21
 3a4:	a9 f7       	brne	.-22     	; 0x390 <__udivmodhi4_loop>
 3a6:	80 95       	com	r24
 3a8:	90 95       	com	r25
 3aa:	bc 01       	movw	r22, r24
 3ac:	cd 01       	movw	r24, r26
 3ae:	08 95       	ret

000003b0 <_exit>:
 3b0:	f8 94       	cli

000003b2 <__stop_program>:
 3b2:	ff cf       	rjmp	.-2      	; 0x3b2 <__stop_program>
